; Function Attrs: mustprogress nounwind uwtable
define internal void @_ZN12_GLOBAL__N_119CommandLineFlagTest8TearDownEv(ptr nocapture noundef nonnull align 8 dereferenceable(24) %this) unnamed_addr #9 align 2 {
entry:
  %flag_saver_ = getelementptr inbounds i8, ptr %this, i64 16
  %0 = load ptr, ptr %flag_saver_, align 8
  store ptr null, ptr %flag_saver_, align 8
  %tobool.not.i.i = icmp eq ptr %0, null
  br i1 %tobool.not.i.i, label %_ZNSt10unique_ptrIN4absl9FlagSaverESt14default_deleteIS1_EE5resetEPS1_.exit, label %_ZNKSt14default_deleteIN4absl9FlagSaverEEclEPS1_.exit.i.i

_ZNKSt14default_deleteIN4absl9FlagSaverEEclEPS1_.exit.i.i: ; preds = %entry
  tail call void @_ZN4absl9FlagSaverD1Ev(ptr noundef nonnull align 8 dereferenceable(8) %0) #18
  tail call void @_ZdlPv(ptr noundef nonnull %0) #17
  br label %_ZNSt10unique_ptrIN4absl9FlagSaverESt14default_deleteIS1_EE5resetEPS1_.exit

_ZNSt10unique_ptrIN4absl9FlagSaverESt14default_deleteIS1_EE5resetEPS1_.exit: ; preds = %entry, %_ZNKSt14default_deleteIN4absl9FlagSaverEEclEPS1_.exit.i.i
  ret void
}